target datalayout = "e-m:e-p270:32:32-p271:32:32-p272:64:64-i64:64-i128:128-f80:128-n8:16:32:64-S128"
target triple = "x86_64-pc-linux-gnu"

@.str = private unnamed_addr constant [52 x i8] c"could not determine which collation to use for LIKE\00", align 1
@.str.1 = private unnamed_addr constant [56 x i8] c"Use the COLLATE clause to set the collation explicitly.\00", align 1
@.str.2 = private unnamed_addr constant [7 x i8] c"like.c\00", align 1
@__func__.GenericMatchText = private unnamed_addr constant [17 x i8] c"GenericMatchText\00", align 1

; Function Attrs: inlinehint nounwind uwtable
define internal i32 @GenericMatchText(ptr noundef %0, i32 noundef %1, ptr noundef %2, i32 noundef %3, i32 noundef %4) #2 {
  %6 = alloca i32, align 4
  %7 = alloca ptr, align 8
  %8 = alloca i32, align 4
  %9 = alloca ptr, align 8
  %10 = alloca i32, align 4
  %11 = alloca i32, align 4
  %12 = alloca ptr, align 8
  %13 = alloca i32, align 4
  store ptr %0, ptr %7, align 8
  store i32 %1, ptr %8, align 4
  store ptr %2, ptr %9, align 8
  store i32 %3, ptr %10, align 4
  store i32 %4, ptr %11, align 4
  call void @llvm.lifetime.start.p0(i64 8, ptr %12) #8
  %14 = load i32, ptr %11, align 4
  %15 = icmp ne i32 %14, 0
  br i1 %15, label %29, label %16

16:                                               ; preds = %5
  br label %17

17:                                               ; preds = %16
  br i1 true, label %18, label %20

18:                                               ; preds = %17
  %19 = call zeroext i1 @errstart_cold(i32 noundef 21, ptr noundef null) #10
  br i1 %19, label %22, label %26

20:                                               ; preds = %17
  %21 = call zeroext i1 @errstart(i32 noundef 21, ptr noundef null)
  br i1 %21, label %22, label %26

22:                                               ; preds = %20, %18
  %23 = call i32 @errcode(i32 noundef 34209924)
  %24 = call i32 (ptr, ...) @errmsg(ptr noundef @.str)
  %25 = call i32 (ptr, ...) @errhint(ptr noundef @.str.1)
  call void @errfinish(ptr noundef @.str.2, i32 noundef 163, ptr noundef @__func__.GenericMatchText)
  br label %26

26:                                               ; preds = %22, %20, %18
  unreachable

27:                                               ; No predecessors!
  br label %28

28:                                               ; preds = %27
  br label %29

29:                                               ; preds = %28, %5
  %30 = load i32, ptr %11, align 4
  %31 = call ptr @pg_newlocale_from_collation(i32 noundef %30)
  store ptr %31, ptr %12, align 8
  %32 = call i32 @pg_database_encoding_max_length()
  %33 = icmp eq i32 %32, 1
  br i1 %33, label %34, label %41

34:                                               ; preds = %29
  %35 = load ptr, ptr %7, align 8
  %36 = load i32, ptr %8, align 4
  %37 = load ptr, ptr %9, align 8
  %38 = load i32, ptr %10, align 4
  %39 = load ptr, ptr %12, align 8
  %40 = call i32 @SB_MatchText(ptr noundef %35, i32 noundef %36, ptr noundef %37, i32 noundef %38, ptr noundef %39)
  store i32 %40, ptr %6, align 4
  store i32 1, ptr %13, align 4
  br label %58

41:                                               ; preds = %29
  %42 = call i32 @GetDatabaseEncoding()
  %43 = icmp eq i32 %42, 6
  br i1 %43, label %44, label %51

44:                                               ; preds = %41
  %45 = load ptr, ptr %7, align 8
  %46 = load i32, ptr %8, align 4
  %47 = load ptr, ptr %9, align 8
  %48 = load i32, ptr %10, align 4
  %49 = load ptr, ptr %12, align 8
  %50 = call i32 @UTF8_MatchText(ptr noundef %45, i32 noundef %46, ptr noundef %47, i32 noundef %48, ptr noundef %49)
  store i32 %50, ptr %6, align 4
  store i32 1, ptr %13, align 4
  br label %58

51:                                               ; preds = %41
  %52 = load ptr, ptr %7, align 8
  %53 = load i32, ptr %8, align 4
  %54 = load ptr, ptr %9, align 8
  %55 = load i32, ptr %10, align 4
  %56 = load ptr, ptr %12, align 8
  %57 = call i32 @MB_MatchText(ptr noundef %52, i32 noundef %53, ptr noundef %54, i32 noundef %55, ptr noundef %56)
  store i32 %57, ptr %6, align 4
  store i32 1, ptr %13, align 4
  br label %58

58:                                               ; preds = %51, %44, %34
  call void @llvm.lifetime.end.p0(i64 8, ptr %12) #8
  %59 = load i32, ptr %6, align 4
  ret i32 %59
}