; Function Attrs: inlinehint nounwind uwtable
define internal fastcc range(i32 -1, 2) i32 @GenericMatchText(ptr noundef %0, i32 noundef %1, ptr noundef %2, i32 noundef %3, i32 noundef %4) unnamed_addr #3 {
  %.not = icmp eq i32 %4, 0
  br i1 %.not, label %6, label %11

6:                                                ; preds = %5
  %7 = tail call zeroext i1 @errstart_cold(i32 noundef 21, ptr noundef null) #9
  tail call void @llvm.assume(i1 %7)
  %8 = tail call i32 @errcode(i32 noundef 34209924) #7
  %9 = tail call i32 (ptr, ...) @errmsg(ptr noundef nonnull @.str) #7
  %10 = tail call i32 (ptr, ...) @errhint(ptr noundef nonnull @.str.1) #7
  tail call void @errfinish(ptr noundef nonnull @.str.2, i32 noundef 163, ptr noundef nonnull @__func__.GenericMatchText) #7
  unreachable

11:                                               ; preds = %5
  %12 = tail call ptr @pg_newlocale_from_collation(i32 noundef %4) #7
  %13 = tail call i32 @pg_database_encoding_max_length() #7
  %14 = icmp eq i32 %13, 1
  br i1 %14, label %15, label %17

15:                                               ; preds = %11
  %16 = tail call fastcc i32 @SB_MatchText(ptr noundef %0, i32 noundef %1, ptr noundef %2, i32 noundef %3, ptr noundef %12)
  br label %24

17:                                               ; preds = %11
  %18 = tail call i32 @GetDatabaseEncoding() #7
  %19 = icmp eq i32 %18, 6
  br i1 %19, label %20, label %22

20:                                               ; preds = %17
  %21 = tail call fastcc i32 @UTF8_MatchText(ptr noundef %0, i32 noundef %1, ptr noundef %2, i32 noundef %3, ptr noundef %12)
  br label %24

22:                                               ; preds = %17
  %23 = tail call fastcc i32 @MB_MatchText(ptr noundef %0, i32 noundef %1, ptr noundef %2, i32 noundef %3, ptr noundef %12)
  br label %24

24:                                               ; preds = %22, %20, %15
  %.0 = phi i32 [ %16, %15 ], [ %21, %20 ], [ %23, %22 ]
  ret i32 %.0
}